target datalayout = "e-m:e-p270:32:32-p271:32:32-p272:64:64-i64:64-i128:128-f80:128-n8:16:32:64-S128"
target triple = "x86_64-pc-linux-gnu"

%struct.SetExprState = type { i32, ptr, ptr, ptr, %struct.FmgrInfo, ptr, ptr, ptr, i8, i8, i8, i8, ptr }
%struct.FmgrInfo = type { ptr, i32, i16, i8, i8, i8, ptr, ptr, ptr }
%struct.FunctionCallInfoBaseData = type { ptr, ptr, ptr, i32, i8, i16, [0 x %struct.NullableDatum] }
%struct.NullableDatum = type { i64, i8 }
%struct.PlanState = type { i32, ptr, ptr, ptr, ptr, ptr, ptr, ptr, ptr, ptr, ptr, ptr, ptr, ptr, ptr, ptr, ptr, ptr, i8, ptr, ptr, ptr, ptr, ptr, i8, i8, i8, i8, i8, i8, i8, i8 }
%struct.List = type { i32, i32, i32, ptr, [0 x %union.ListCell] }
%union.ListCell = type { ptr }

@.str.2 = private unnamed_addr constant [10 x i8] c"execSRF.c\00", align 1
@CurrentMemoryContext = external global ptr, align 8
@object_access_hook = external global ptr, align 8
@.str.7 = private unnamed_addr constant [48 x i8] c"cannot pass more than %d argument to a function\00", align 1
@.str.8 = private unnamed_addr constant [49 x i8] c"cannot pass more than %d arguments to a function\00", align 1
@__func__.init_sexpr = private unnamed_addr constant [11 x i8] c"init_sexpr\00", align 1
@.str.9 = private unnamed_addr constant [63 x i8] c"set-valued function called in context that cannot accept a set\00", align 1

; Function Attrs: inlinehint nounwind uwtable
define internal ptr @MemoryContextSwitchTo(ptr noundef %0) #2 {
  %2 = alloca ptr, align 8
  %3 = alloca ptr, align 8
  store ptr %0, ptr %2, align 8
  call void @llvm.lifetime.start.p0(i64 8, ptr %3) #7
  %4 = load ptr, ptr @CurrentMemoryContext, align 8
  store ptr %4, ptr %3, align 8
  %5 = load ptr, ptr %2, align 8
  store ptr %5, ptr @CurrentMemoryContext, align 8
  %6 = load ptr, ptr %3, align 8
  call void @llvm.lifetime.end.p0(i64 8, ptr %3) #7
  ret ptr %6
}

; Function Attrs: inlinehint nounwind uwtable
define internal i32 @list_length(ptr noundef %0) #2 {
  %2 = alloca ptr, align 8
  store ptr %0, ptr %2, align 8
  %3 = load ptr, ptr %2, align 8
  %4 = icmp ne ptr %3, null
  br i1 %4, label %5, label %9

5:                                                ; preds = %1
  %6 = load ptr, ptr %2, align 8
  %7 = getelementptr inbounds nuw %struct.List, ptr %6, i32 0, i32 1
  %8 = load i32, ptr %7, align 4
  br label %10

9:                                                ; preds = %1
  br label %10

10:                                               ; preds = %9, %5
  %11 = phi i32 [ %8, %5 ], [ 0, %9 ]
  ret i32 %11
}

; Function Attrs: nounwind uwtable
define internal void @init_sexpr(i32 noundef %0, i32 noundef %1, ptr noundef %2, ptr noundef %3, ptr noundef %4, ptr noundef %5, i1 noundef zeroext %6, i1 noundef zeroext %7) #0 {
  %9 = alloca i32, align 4
  %10 = alloca i32, align 4
  %11 = alloca ptr, align 8
  %12 = alloca ptr, align 8
  %13 = alloca ptr, align 8
  %14 = alloca ptr, align 8
  %15 = alloca i8, align 1
  %16 = alloca i8, align 1
  %17 = alloca i32, align 4
  %18 = alloca i64, align 8
  %19 = alloca i32, align 4
  %20 = alloca i32, align 4
  %21 = alloca ptr, align 8
  %22 = alloca ptr, align 8
  store i32 %0, ptr %9, align 4
  store i32 %1, ptr %10, align 4
  store ptr %2, ptr %11, align 8
  store ptr %3, ptr %12, align 8
  store ptr %4, ptr %13, align 8
  store ptr %5, ptr %14, align 8
  %23 = zext i1 %6 to i8
  store i8 %23, ptr %15, align 1
  %24 = zext i1 %7 to i8
  store i8 %24, ptr %16, align 1
  call void @llvm.lifetime.start.p0(i64 4, ptr %17) #7
  call void @llvm.lifetime.start.p0(i64 8, ptr %18) #7
  %25 = load ptr, ptr %12, align 8
  %26 = getelementptr inbounds nuw %struct.SetExprState, ptr %25, i32 0, i32 2
  %27 = load ptr, ptr %26, align 8
  %28 = call i32 @list_length(ptr noundef %27)
  %29 = sext i32 %28 to i64
  store i64 %29, ptr %18, align 8
  %30 = load i32, ptr %9, align 4
  %31 = call i32 @GetUserId()
  %32 = call i32 @object_aclcheck(i32 noundef 1255, i32 noundef %30, i32 noundef %31, i64 noundef 128)
  store i32 %32, ptr %17, align 4
  %33 = load i32, ptr %17, align 4
  %34 = icmp ne i32 %33, 0
  br i1 %34, label %35, label %39

35:                                               ; preds = %8
  %36 = load i32, ptr %17, align 4
  %37 = load i32, ptr %9, align 4
  %38 = call ptr @get_func_name(i32 noundef %37)
  call void @aclcheck_error(i32 noundef %36, i32 noundef 19, ptr noundef %38)
  br label %39

39:                                               ; preds = %35, %8
  br label %40

40:                                               ; preds = %39
  %41 = load ptr, ptr @object_access_hook, align 8
  %42 = icmp ne ptr %41, null
  br i1 %42, label %43, label %45

43:                                               ; preds = %40
  %44 = load i32, ptr %9, align 4
  call void @RunFunctionExecuteHook(i32 noundef %44)
  br label %45

45:                                               ; preds = %43, %40
  br label %46

46:                                               ; preds = %45
  br label %47

47:                                               ; preds = %46
  %48 = load ptr, ptr %12, align 8
  %49 = getelementptr inbounds nuw %struct.SetExprState, ptr %48, i32 0, i32 2
  %50 = load ptr, ptr %49, align 8
  %51 = call i32 @list_length(ptr noundef %50)
  %52 = icmp sgt i32 %51, 100
  br i1 %52, label %53, label %65

53:                                               ; preds = %47
  br label %54

54:                                               ; preds = %53
  br i1 true, label %55, label %57

55:                                               ; preds = %54
  %56 = call zeroext i1 @errstart_cold(i32 noundef 21, ptr noundef null) #8
  br i1 %56, label %59, label %62

57:                                               ; preds = %54
  %58 = call zeroext i1 @errstart(i32 noundef 21, ptr noundef null)
  br i1 %58, label %59, label %62

59:                                               ; preds = %57, %55
  %60 = call i32 @errcode(i32 noundef 50856197)
  %61 = call i32 (ptr, ptr, i64, ...) @errmsg_plural(ptr noundef @.str.7, ptr noundef @.str.8, i64 noundef 100, i32 noundef 100)
  call void @errfinish(ptr noundef @.str.2, i32 noundef 721, ptr noundef @__func__.init_sexpr)
  br label %62

62:                                               ; preds = %59, %57, %55
  unreachable

63:                                               ; No predecessors!
  br label %64

64:                                               ; preds = %63
  br label %65

65:                                               ; preds = %64, %47
  %66 = load i32, ptr %9, align 4
  %67 = load ptr, ptr %12, align 8
  %68 = getelementptr inbounds nuw %struct.SetExprState, ptr %67, i32 0, i32 4
  %69 = load ptr, ptr %14, align 8
  call void @fmgr_info_cxt(i32 noundef %66, ptr noundef %68, ptr noundef %69)
  %70 = load ptr, ptr %12, align 8
  %71 = getelementptr inbounds nuw %struct.SetExprState, ptr %70, i32 0, i32 1
  %72 = load ptr, ptr %71, align 8
  %73 = load ptr, ptr %12, align 8
  %74 = getelementptr inbounds nuw %struct.SetExprState, ptr %73, i32 0, i32 4
  %75 = getelementptr inbounds nuw %struct.FmgrInfo, ptr %74, i32 0, i32 8
  store ptr %72, ptr %75, align 8
  %76 = load i64, ptr %18, align 8
  %77 = mul i64 16, %76
  %78 = add i64 32, %77
  %79 = call ptr @palloc(i64 noundef %78)
  %80 = load ptr, ptr %12, align 8
  %81 = getelementptr inbounds nuw %struct.SetExprState, ptr %80, i32 0, i32 12
  store ptr %79, ptr %81, align 8
  br label %82

82:                                               ; preds = %65
  %83 = load ptr, ptr %12, align 8
  %84 = getelementptr inbounds nuw %struct.SetExprState, ptr %83, i32 0, i32 4
  %85 = load ptr, ptr %12, align 8
  %86 = getelementptr inbounds nuw %struct.SetExprState, ptr %85, i32 0, i32 12
  %87 = load ptr, ptr %86, align 8
  %88 = getelementptr inbounds nuw %struct.FunctionCallInfoBaseData, ptr %87, i32 0, i32 0
  store ptr %84, ptr %88, align 8
  %89 = load ptr, ptr %12, align 8
  %90 = getelementptr inbounds nuw %struct.SetExprState, ptr %89, i32 0, i32 12
  %91 = load ptr, ptr %90, align 8
  %92 = getelementptr inbounds nuw %struct.FunctionCallInfoBaseData, ptr %91, i32 0, i32 1
  store ptr null, ptr %92, align 8
  %93 = load ptr, ptr %12, align 8
  %94 = getelementptr inbounds nuw %struct.SetExprState, ptr %93, i32 0, i32 12
  %95 = load ptr, ptr %94, align 8
  %96 = getelementptr inbounds nuw %struct.FunctionCallInfoBaseData, ptr %95, i32 0, i32 2
  store ptr null, ptr %96, align 8
  %97 = load i32, ptr %10, align 4
  %98 = load ptr, ptr %12, align 8
  %99 = getelementptr inbounds nuw %struct.SetExprState, ptr %98, i32 0, i32 12
  %100 = load ptr, ptr %99, align 8
  %101 = getelementptr inbounds nuw %struct.FunctionCallInfoBaseData, ptr %100, i32 0, i32 3
  store i32 %97, ptr %101, align 8
  %102 = load ptr, ptr %12, align 8
  %103 = getelementptr inbounds nuw %struct.SetExprState, ptr %102, i32 0, i32 12
  %104 = load ptr, ptr %103, align 8
  %105 = getelementptr inbounds nuw %struct.FunctionCallInfoBaseData, ptr %104, i32 0, i32 4
  store i8 0, ptr %105, align 4
  %106 = load i64, ptr %18, align 8
  %107 = trunc i64 %106 to i16
  %108 = load ptr, ptr %12, align 8
  %109 = getelementptr inbounds nuw %struct.SetExprState, ptr %108, i32 0, i32 12
  %110 = load ptr, ptr %109, align 8
  %111 = getelementptr inbounds nuw %struct.FunctionCallInfoBaseData, ptr %110, i32 0, i32 5
  store i16 %107, ptr %111, align 2
  br label %112

112:                                              ; preds = %82
  br label %113

113:                                              ; preds = %112
  %114 = load ptr, ptr %12, align 8
  %115 = getelementptr inbounds nuw %struct.SetExprState, ptr %114, i32 0, i32 4
  %116 = getelementptr inbounds nuw %struct.FmgrInfo, ptr %115, i32 0, i32 4
  %117 = load i8, ptr %116, align 1, !range !4, !noundef !5
  %118 = trunc i8 %117 to i1
  br i1 %118, label %119, label %145

119:                                              ; preds = %113
  %120 = load i8, ptr %15, align 1, !range !4, !noundef !5
  %121 = trunc i8 %120 to i1
  br i1 %121, label %145, label %122

122:                                              ; preds = %119
  br label %123

123:                                              ; preds = %122
  br i1 true, label %124, label %126

124:                                              ; preds = %123
  %125 = call zeroext i1 @errstart_cold(i32 noundef 21, ptr noundef null) #8
  br i1 %125, label %128, label %142

126:                                              ; preds = %123
  %127 = call zeroext i1 @errstart(i32 noundef 21, ptr noundef null)
  br i1 %127, label %128, label %142

128:                                              ; preds = %126, %124
  %129 = call i32 @errcode(i32 noundef 1088)
  %130 = call i32 (ptr, ...) @errmsg(ptr noundef @.str.9)
  %131 = load ptr, ptr %13, align 8
  %132 = icmp ne ptr %131, null
  br i1 %132, label %133, label %140

133:                                              ; preds = %128
  %134 = load ptr, ptr %13, align 8
  %135 = getelementptr inbounds nuw %struct.PlanState, ptr %134, i32 0, i32 2
  %136 = load ptr, ptr %135, align 8
  %137 = load ptr, ptr %11, align 8
  %138 = call i32 @exprLocation(ptr noundef %137)
  %139 = call i32 @executor_errposition(ptr noundef %136, i32 noundef %138)
  br label %141

140:                                              ; preds = %128
  br label %141

141:                                              ; preds = %140, %133
  call void @errfinish(ptr noundef @.str.2, i32 noundef 740, ptr noundef @__func__.init_sexpr)
  br label %142

142:                                              ; preds = %141, %126, %124
  unreachable

143:                                              ; No predecessors!
  br label %144

144:                                              ; preds = %143
  br label %145

145:                                              ; preds = %144, %119, %113
  %146 = load ptr, ptr %12, align 8
  %147 = getelementptr inbounds nuw %struct.SetExprState, ptr %146, i32 0, i32 4
  %148 = getelementptr inbounds nuw %struct.FmgrInfo, ptr %147, i32 0, i32 4
  %149 = load i8, ptr %148, align 1, !range !4, !noundef !5
  %150 = trunc i8 %149 to i1
  br i1 %150, label %151, label %202

151:                                              ; preds = %145
  %152 = load i8, ptr %16, align 1, !range !4, !noundef !5
  %153 = trunc i8 %152 to i1
  br i1 %153, label %154, label %202

154:                                              ; preds = %151
  call void @llvm.lifetime.start.p0(i64 4, ptr %19) #7
  call void @llvm.lifetime.start.p0(i64 4, ptr %20) #7
  call void @llvm.lifetime.start.p0(i64 8, ptr %21) #7
  call void @llvm.lifetime.start.p0(i64 8, ptr %22) #7
  %155 = load ptr, ptr %12, align 8
  %156 = getelementptr inbounds nuw %struct.SetExprState, ptr %155, i32 0, i32 4
  %157 = getelementptr inbounds nuw %struct.FmgrInfo, ptr %156, i32 0, i32 8
  %158 = load ptr, ptr %157, align 8
  %159 = call i32 @get_expr_result_type(ptr noundef %158, ptr noundef %20, ptr noundef %21)
  store i32 %159, ptr %19, align 4
  %160 = load ptr, ptr %14, align 8
  %161 = call ptr @MemoryContextSwitchTo(ptr noundef %160)
  store ptr %161, ptr %22, align 8
  %162 = load i32, ptr %19, align 4
  %163 = icmp eq i32 %162, 1
  br i1 %163, label %167, label %164

164:                                              ; preds = %154
  %165 = load i32, ptr %19, align 4
  %166 = icmp eq i32 %165, 2
  br i1 %166, label %167, label %174

167:                                              ; preds = %164, %154
  %168 = load ptr, ptr %21, align 8
  %169 = call ptr @CreateTupleDescCopy(ptr noundef %168)
  %170 = load ptr, ptr %12, align 8
  %171 = getelementptr inbounds nuw %struct.SetExprState, ptr %170, i32 0, i32 7
  store ptr %169, ptr %171, align 8
  %172 = load ptr, ptr %12, align 8
  %173 = getelementptr inbounds nuw %struct.SetExprState, ptr %172, i32 0, i32 8
  store i8 1, ptr %173, align 8
  br label %199

174:                                              ; preds = %164
  %175 = load i32, ptr %19, align 4
  %176 = icmp eq i32 %175, 0
  br i1 %176, label %177, label %186

177:                                              ; preds = %174
  %178 = call ptr @CreateTemplateTupleDesc(i32 noundef 1)
  store ptr %178, ptr %21, align 8
  %179 = load ptr, ptr %21, align 8
  %180 = load i32, ptr %20, align 4
  call void @TupleDescInitEntry(ptr noundef %179, i16 noundef signext 1, ptr noundef null, i32 noundef %180, i32 noundef -1, i32 noundef 0)
  %181 = load ptr, ptr %21, align 8
  %182 = load ptr, ptr %12, align 8
  %183 = getelementptr inbounds nuw %struct.SetExprState, ptr %182, i32 0, i32 7
  store ptr %181, ptr %183, align 8
  %184 = load ptr, ptr %12, align 8
  %185 = getelementptr inbounds nuw %struct.SetExprState, ptr %184, i32 0, i32 8
  store i8 0, ptr %185, align 8
  br label %198

186:                                              ; preds = %174
  %187 = load i32, ptr %19, align 4
  %188 = icmp eq i32 %187, 3
  br i1 %188, label %189, label %194

189:                                              ; preds = %186
  %190 = load ptr, ptr %12, align 8
  %191 = getelementptr inbounds nuw %struct.SetExprState, ptr %190, i32 0, i32 7
  store ptr null, ptr %191, align 8
  %192 = load ptr, ptr %12, align 8
  %193 = getelementptr inbounds nuw %struct.SetExprState, ptr %192, i32 0, i32 8
  store i8 1, ptr %193, align 8
  br label %197

194:                                              ; preds = %186
  %195 = load ptr, ptr %12, align 8
  %196 = getelementptr inbounds nuw %struct.SetExprState, ptr %195, i32 0, i32 7
  store ptr null, ptr %196, align 8
  br label %197

197:                                              ; preds = %194, %189
  br label %198

198:                                              ; preds = %197, %177
  br label %199

199:                                              ; preds = %198, %167
  %200 = load ptr, ptr %22, align 8
  %201 = call ptr @MemoryContextSwitchTo(ptr noundef %200)
  call void @llvm.lifetime.end.p0(i64 8, ptr %22) #7
  call void @llvm.lifetime.end.p0(i64 8, ptr %21) #7
  call void @llvm.lifetime.end.p0(i64 4, ptr %20) #7
  call void @llvm.lifetime.end.p0(i64 4, ptr %19) #7
  br label %205

202:                                              ; preds = %151, %145
  %203 = load ptr, ptr %12, align 8
  %204 = getelementptr inbounds nuw %struct.SetExprState, ptr %203, i32 0, i32 7
  store ptr null, ptr %204, align 8
  br label %205

205:                                              ; preds = %202, %199
  %206 = load ptr, ptr %12, align 8
  %207 = getelementptr inbounds nuw %struct.SetExprState, ptr %206, i32 0, i32 5
  store ptr null, ptr %207, align 8
  %208 = load ptr, ptr %12, align 8
  %209 = getelementptr inbounds nuw %struct.SetExprState, ptr %208, i32 0, i32 6
  store ptr null, ptr %209, align 8
  %210 = load ptr, ptr %12, align 8
  %211 = getelementptr inbounds nuw %struct.SetExprState, ptr %210, i32 0, i32 11
  store i8 0, ptr %211, align 1
  call void @llvm.lifetime.end.p0(i64 8, ptr %18) #7
  call void @llvm.lifetime.end.p0(i64 4, ptr %17) #7
  ret void
}