; Function Attrs: nounwind uwtable
define internal fastcc void @init_sexpr(i32 noundef %0, i32 noundef %1, ptr noundef %2, ptr noundef %3, ptr noundef readonly captures(address_is_null) %4, ptr noundef %5, i1 noundef zeroext %6, i1 noundef zeroext %7) unnamed_addr #0 {
  %9 = alloca i32, align 4
  %10 = alloca ptr, align 8
  %11 = getelementptr inbounds nuw i8, ptr %3, i64 16
  %12 = load ptr, ptr %11, align 8
  %.not.i = icmp eq ptr %12, null
  br i1 %.not.i, label %list_length.exit, label %13

13:                                               ; preds = %8
  %14 = getelementptr inbounds nuw i8, ptr %12, i64 4
  %15 = load i32, ptr %14, align 4
  br label %list_length.exit

list_length.exit:                                 ; preds = %8, %13
  %16 = phi i32 [ %15, %13 ], [ 0, %8 ]
  %17 = sext i32 %16 to i64
  %18 = tail call i32 @GetUserId() #6
  %19 = tail call i32 @object_aclcheck(i32 noundef 1255, i32 noundef %0, i32 noundef %18, i64 noundef 128) #6
  %.not = icmp eq i32 %19, 0
  br i1 %.not, label %22, label %20

20:                                               ; preds = %list_length.exit
  %21 = tail call ptr @get_func_name(i32 noundef %0) #6
  tail call void @aclcheck_error(i32 noundef %19, i32 noundef 19, ptr noundef %21) #6
  br label %22

22:                                               ; preds = %list_length.exit, %20
  %23 = load ptr, ptr @object_access_hook, align 8
  %.not50 = icmp eq ptr %23, null
  br i1 %.not50, label %25, label %24

24:                                               ; preds = %22
  tail call void @RunFunctionExecuteHook(i32 noundef %0) #6
  br label %25

25:                                               ; preds = %24, %22
  %26 = load ptr, ptr %11, align 8
  %.not.i56 = icmp eq ptr %26, null
  br i1 %.not.i56, label %list_length.exit57.thread, label %list_length.exit57

list_length.exit57:                               ; preds = %25
  %27 = getelementptr inbounds nuw i8, ptr %26, i64 4
  %28 = load i32, ptr %27, align 4
  %29 = icmp sgt i32 %28, 100
  br i1 %29, label %30, label %list_length.exit57.thread

30:                                               ; preds = %list_length.exit57
  %31 = tail call zeroext i1 @errstart_cold(i32 noundef 21, ptr noundef null) #7
  tail call void @llvm.assume(i1 %31)
  %32 = tail call i32 @errcode(i32 noundef 50856197) #6
  %33 = tail call i32 (ptr, ptr, i64, ...) @errmsg_plural(ptr noundef nonnull @.str.7, ptr noundef nonnull @.str.8, i64 noundef 100, i32 noundef 100) #6
  tail call void @errfinish(ptr noundef nonnull @.str.2, i32 noundef 721, ptr noundef nonnull @__func__.init_sexpr) #6
  unreachable

list_length.exit57.thread:                        ; preds = %25, %list_length.exit57
  %34 = getelementptr inbounds nuw i8, ptr %3, i64 32
  tail call void @fmgr_info_cxt(i32 noundef %0, ptr noundef nonnull %34, ptr noundef %5) #6
  %35 = getelementptr inbounds nuw i8, ptr %3, i64 8
  %36 = load ptr, ptr %35, align 8
  %37 = getelementptr inbounds nuw i8, ptr %3, i64 72
  store ptr %36, ptr %37, align 8
  %38 = shl nsw i64 %17, 4
  %39 = add nsw i64 %38, 32
  %40 = tail call ptr @palloc(i64 noundef %39) #6
  %41 = getelementptr inbounds nuw i8, ptr %3, i64 112
  store ptr %40, ptr %41, align 8
  store ptr %34, ptr %40, align 8
  %42 = load ptr, ptr %41, align 8
  %43 = getelementptr inbounds nuw i8, ptr %42, i64 8
  store ptr null, ptr %43, align 8
  %44 = load ptr, ptr %41, align 8
  %45 = getelementptr inbounds nuw i8, ptr %44, i64 16
  store ptr null, ptr %45, align 8
  %46 = load ptr, ptr %41, align 8
  %47 = getelementptr inbounds nuw i8, ptr %46, i64 24
  store i32 %1, ptr %47, align 8
  %48 = load ptr, ptr %41, align 8
  %49 = getelementptr inbounds nuw i8, ptr %48, i64 28
  store i8 0, ptr %49, align 4
  %50 = trunc i32 %16 to i16
  %51 = load ptr, ptr %41, align 8
  %52 = getelementptr inbounds nuw i8, ptr %51, i64 30
  store i16 %50, ptr %52, align 2
  %53 = getelementptr inbounds nuw i8, ptr %3, i64 47
  %54 = load i8, ptr %53, align 1, !range !4, !noundef !5
  %55 = trunc nuw i8 %54 to i1
  %.not52 = xor i1 %55, true
  %brmerge = or i1 %6, %.not52
  br i1 %brmerge, label %66, label %56

56:                                               ; preds = %list_length.exit57.thread
  %57 = tail call zeroext i1 @errstart_cold(i32 noundef 21, ptr noundef null) #7
  tail call void @llvm.assume(i1 %57)
  %58 = tail call i32 @errcode(i32 noundef 1088) #6
  %59 = tail call i32 (ptr, ...) @errmsg(ptr noundef nonnull @.str.9) #6
  %.not51 = icmp eq ptr %4, null
  br i1 %.not51, label %65, label %60

60:                                               ; preds = %56
  %61 = getelementptr inbounds nuw i8, ptr %4, i64 16
  %62 = load ptr, ptr %61, align 8
  %63 = tail call i32 @exprLocation(ptr noundef %2) #6
  %64 = tail call i32 @executor_errposition(ptr noundef %62, i32 noundef %63) #6
  br label %65

65:                                               ; preds = %56, %60
  tail call void @errfinish(ptr noundef nonnull @.str.2, i32 noundef 740, ptr noundef nonnull @__func__.init_sexpr) #6
  unreachable

66:                                               ; preds = %list_length.exit57.thread
  %brmerge55.not = and i1 %7, %55
  br i1 %brmerge55.not, label %67, label %90

67:                                               ; preds = %66
  call void @llvm.lifetime.start.p0(i64 4, ptr nonnull %9) #6
  call void @llvm.lifetime.start.p0(i64 8, ptr nonnull %10) #6
  %68 = load ptr, ptr %37, align 8
  %69 = call i32 @get_expr_result_type(ptr noundef %68, ptr noundef nonnull %9, ptr noundef nonnull %10) #6
  %70 = load ptr, ptr @CurrentMemoryContext, align 8
  store ptr %5, ptr @CurrentMemoryContext, align 8
  %71 = add i32 %69, -1
  %or.cond = icmp ult i32 %71, 2
  br i1 %or.cond, label %72, label %77

72:                                               ; preds = %67
  %73 = load ptr, ptr %10, align 8
  %74 = call ptr @CreateTupleDescCopy(ptr noundef %73) #6
  %75 = getelementptr inbounds nuw i8, ptr %3, i64 96
  store ptr %74, ptr %75, align 8
  %76 = getelementptr inbounds nuw i8, ptr %3, i64 104
  store i8 1, ptr %76, align 8
  br label %89

77:                                               ; preds = %67
  switch i32 %69, label %87 [
    i32 0, label %78
    i32 3, label %84
  ]

78:                                               ; preds = %77
  %79 = call ptr @CreateTemplateTupleDesc(i32 noundef 1) #6
  store ptr %79, ptr %10, align 8
  %80 = load i32, ptr %9, align 4
  call void @TupleDescInitEntry(ptr noundef %79, i16 noundef signext 1, ptr noundef null, i32 noundef %80, i32 noundef -1, i32 noundef 0) #6
  %81 = load ptr, ptr %10, align 8
  %82 = getelementptr inbounds nuw i8, ptr %3, i64 96
  store ptr %81, ptr %82, align 8
  %83 = getelementptr inbounds nuw i8, ptr %3, i64 104
  store i8 0, ptr %83, align 8
  br label %89

84:                                               ; preds = %77
  %85 = getelementptr inbounds nuw i8, ptr %3, i64 96
  store ptr null, ptr %85, align 8
  %86 = getelementptr inbounds nuw i8, ptr %3, i64 104
  store i8 1, ptr %86, align 8
  br label %89

87:                                               ; preds = %77
  %88 = getelementptr inbounds nuw i8, ptr %3, i64 96
  store ptr null, ptr %88, align 8
  br label %89

89:                                               ; preds = %78, %87, %84, %72
  store ptr %70, ptr @CurrentMemoryContext, align 8
  call void @llvm.lifetime.end.p0(i64 8, ptr nonnull %10) #6
  call void @llvm.lifetime.end.p0(i64 4, ptr nonnull %9) #6
  br label %92

90:                                               ; preds = %66
  %91 = getelementptr inbounds nuw i8, ptr %3, i64 96
  store ptr null, ptr %91, align 8
  br label %92

92:                                               ; preds = %90, %89
  %93 = getelementptr inbounds nuw i8, ptr %3, i64 80
  %94 = getelementptr inbounds nuw i8, ptr %3, i64 107
  store i8 0, ptr %94, align 1
  call void @llvm.memset.p0.i64(ptr noundef nonnull align 8 dereferenceable(16) %93, i8 0, i64 16, i1 false)
  ret void
}